target datalayout = "e-m:e-p270:32:32-p271:32:32-p272:64:64-i64:64-i128:128-f80:128-n8:16:32:64-S128"
target triple = "x86_64-pc-linux-gnu"

%class.QString = type { %struct.QArrayDataPointer }
%struct.QArrayDataPointer = type { ptr, ptr, i64 }
%class.ApplyLineEdit = type { %class.QLineEdit, %class.QString, i8, ptr }
%class.QLineEdit = type { %class.QWidget }
%class.QWidget = type { %class.QObject, %class.QPaintDevice.base, ptr }
%class.QObject = type { ptr, %class.QScopedPointer }
%class.QScopedPointer = type { ptr }
%class.QPaintDevice.base = type <{ ptr, i16 }>
%class.QRegularExpression = type { %class.QExplicitlySharedDataPointer }
%class.QExplicitlySharedDataPointer = type { ptr }
%class.QFlags = type { i32 }
%class.QRegularExpressionValidator = type { %class.QValidator }
%class.QValidator = type { %class.QObject }

; Function Attrs: inlinehint mustprogress nounwind null_pointer_is_valid sspstrong uwtable
define linkonce_odr void @_ZN6QFlagsIN18QRegularExpression13PatternOptionEEC2ES1_(ptr noundef align 4 dereferenceable_or_null(4) %0, i32 noundef %1) unnamed_addr #2 comdat align 2 {
  %3 = alloca ptr, align 8
  %4 = alloca i32, align 4
  store ptr %0, ptr %3, align 8
  store i32 %1, ptr %4, align 4
  %5 = load ptr, ptr %3, align 8
  %6 = getelementptr inbounds nuw %class.QFlags, ptr %5, i32 0, i32 0
  %7 = load i32, ptr %4, align 4
  store i32 %7, ptr %6, align 4
  ret void
}

; Function Attrs: inlinehint mustprogress nounwind null_pointer_is_valid sspstrong uwtable
define linkonce_odr noundef i64 @_ZNK7QString6lengthEv(ptr noundef align 8 dereferenceable_or_null(24) %0) #2 comdat align 2 {
  %2 = alloca ptr, align 8
  store ptr %0, ptr %2, align 8
  %3 = load ptr, ptr %2, align 8
  %4 = getelementptr inbounds nuw %class.QString, ptr %3, i32 0, i32 0
  %5 = getelementptr inbounds nuw %struct.QArrayDataPointer, ptr %4, i32 0, i32 2
  %6 = load i64, ptr %5, align 8
  ret i64 %6
}

; Function Attrs: mustprogress null_pointer_is_valid sspstrong uwtable
define noundef zeroext i1 @_ZN13ApplyLineEdit11isValidTextER7QStringb(ptr noundef align 8 dereferenceable_or_null(80) %0, ptr noundef align 8 dereferenceable(24) %1, i1 noundef zeroext %2) #0 align 2 personality ptr @__gxx_personality_v0 {
  %4 = alloca i1, align 1
  %5 = alloca ptr, align 8
  %6 = alloca ptr, align 8
  %7 = alloca i8, align 1
  %8 = alloca %class.QRegularExpression, align 8
  %9 = alloca %class.QFlags, align 4
  %10 = alloca %class.QRegularExpressionValidator, align 8
  %11 = alloca ptr, align 8
  %12 = alloca i32, align 4
  %13 = alloca i32, align 4
  %14 = alloca i32, align 4
  store ptr %0, ptr %5, align 8
  store ptr %1, ptr %6, align 8
  %15 = zext i1 %2 to i8
  store i8 %15, ptr %7, align 1
  %16 = load ptr, ptr %5, align 8
  %17 = load ptr, ptr %6, align 8
  %18 = call noundef i64 @_ZNK7QString6lengthEv(ptr noundef align 8 dereferenceable_or_null(24) %17)
  %19 = icmp eq i64 %18, 0
  br i1 %19, label %20, label %34

20:                                               ; preds = %3
  %21 = load i8, ptr %7, align 1, !range !6, !noundef !7
  %22 = trunc i8 %21 to i1
  br i1 %22, label %28, label %23

23:                                               ; preds = %20
  %24 = getelementptr inbounds nuw %class.ApplyLineEdit, ptr %16, i32 0, i32 2
  %25 = load i8, ptr %24, align 8, !range !6, !noundef !7
  %26 = trunc i8 %25 to i1
  br i1 %26, label %28, label %27

27:                                               ; preds = %23
  store i1 false, ptr %4, align 1
  br label %65

28:                                               ; preds = %23, %20
  %29 = load i8, ptr %7, align 1, !range !6, !noundef !7
  %30 = trunc i8 %29 to i1
  br i1 %30, label %31, label %32

31:                                               ; preds = %28
  store i1 true, ptr %4, align 1
  br label %65

32:                                               ; preds = %28
  br label %33

33:                                               ; preds = %32
  br label %34

34:                                               ; preds = %33, %3
  %35 = getelementptr inbounds nuw %class.ApplyLineEdit, ptr %16, i32 0, i32 1
  %36 = call noundef i64 @_ZNK7QString6lengthEv(ptr noundef align 8 dereferenceable_or_null(24) %35)
  %37 = icmp sgt i64 %36, 0
  br i1 %37, label %38, label %64

38:                                               ; preds = %34
  call void @llvm.lifetime.start.p0(i64 8, ptr %8) #15
  %39 = getelementptr inbounds nuw %class.ApplyLineEdit, ptr %16, i32 0, i32 1
  call void @_ZN6QFlagsIN18QRegularExpression13PatternOptionEEC2ES1_(ptr noundef align 4 dereferenceable_or_null(4) %9, i32 noundef 0) #15
  %40 = getelementptr inbounds nuw %class.QFlags, ptr %9, i32 0, i32 0
  %41 = load i32, ptr %40, align 4
  call void @_ZN18QRegularExpressionC1ERK7QString6QFlagsINS_13PatternOptionEE(ptr noundef align 8 dereferenceable_or_null(8) %8, ptr noundef align 8 dereferenceable(24) %39, i32 %41)
  call void @llvm.lifetime.start.p0(i64 16, ptr %10) #15
  invoke void @_ZN27QRegularExpressionValidatorC1ERK18QRegularExpressionP7QObject(ptr noundef align 8 dereferenceable_or_null(16) %10, ptr noundef align 8 dereferenceable(8) %8, ptr noundef null)
          to label %42 unwind label %51

42:                                               ; preds = %38
  call void @llvm.lifetime.start.p0(i64 4, ptr %13) #15
  store i32 0, ptr %13, align 4
  %43 = invoke noundef zeroext i1 @_ZNK18QRegularExpression7isValidEv(ptr noundef align 8 dereferenceable_or_null(8) %8)
          to label %44 unwind label %55

44:                                               ; preds = %42
  br i1 %43, label %45, label %50

45:                                               ; preds = %44
  %46 = load ptr, ptr %6, align 8
  %47 = invoke noundef i32 @_ZNK27QRegularExpressionValidator8validateER7QStringRi(ptr noundef align 8 dereferenceable_or_null(16) %10, ptr noundef align 8 dereferenceable(24) %46, ptr noundef align 4 dereferenceable(4) %13)
          to label %48 unwind label %55

48:                                               ; preds = %45
  %49 = icmp ne i32 %47, 2
  br i1 %49, label %50, label %59

50:                                               ; preds = %48, %44
  store i1 false, ptr %4, align 1
  store i32 1, ptr %14, align 4
  br label %60

51:                                               ; preds = %38
  %52 = landingpad { ptr, i32 }
          cleanup
  %53 = extractvalue { ptr, i32 } %52, 0
  store ptr %53, ptr %11, align 8
  %54 = extractvalue { ptr, i32 } %52, 1
  store i32 %54, ptr %12, align 4
  br label %63

55:                                               ; preds = %45, %42
  %56 = landingpad { ptr, i32 }
          cleanup
  %57 = extractvalue { ptr, i32 } %56, 0
  store ptr %57, ptr %11, align 8
  %58 = extractvalue { ptr, i32 } %56, 1
  store i32 %58, ptr %12, align 4
  call void @llvm.lifetime.end.p0(i64 4, ptr %13) #15
  call void @_ZN27QRegularExpressionValidatorD1Ev(ptr noundef align 8 dereferenceable_or_null(16) %10) #15
  br label %63

59:                                               ; preds = %48
  store i32 0, ptr %14, align 4
  br label %60

60:                                               ; preds = %59, %50
  call void @llvm.lifetime.end.p0(i64 4, ptr %13) #15
  call void @_ZN27QRegularExpressionValidatorD1Ev(ptr noundef align 8 dereferenceable_or_null(16) %10) #15
  call void @llvm.lifetime.end.p0(i64 16, ptr %10) #15
  call void @_ZN18QRegularExpressionD1Ev(ptr noundef align 8 dereferenceable_or_null(8) %8) #15
  call void @llvm.lifetime.end.p0(i64 8, ptr %8) #15
  %61 = load i32, ptr %14, align 4
  switch i32 %61, label %72 [
    i32 0, label %62
    i32 1, label %65
  ]

62:                                               ; preds = %60
  br label %64

63:                                               ; preds = %55, %51
  call void @llvm.lifetime.end.p0(i64 16, ptr %10) #15
  call void @_ZN18QRegularExpressionD1Ev(ptr noundef align 8 dereferenceable_or_null(8) %8) #15
  call void @llvm.lifetime.end.p0(i64 8, ptr %8) #15
  br label %67

64:                                               ; preds = %62, %34
  store i1 true, ptr %4, align 1
  br label %65

65:                                               ; preds = %64, %60, %31, %27
  %66 = load i1, ptr %4, align 1
  ret i1 %66

67:                                               ; preds = %63
  %68 = load ptr, ptr %11, align 8
  %69 = load i32, ptr %12, align 4
  %70 = insertvalue { ptr, i32 } poison, ptr %68, 0
  %71 = insertvalue { ptr, i32 } %70, i32 %69, 1
  resume { ptr, i32 } %71

72:                                               ; preds = %60
  unreachable
}