; Function Attrs: mustprogress null_pointer_is_valid sspstrong uwtable
define noundef zeroext i1 @_ZN13ApplyLineEdit11isValidTextER7QStringb(ptr noundef align 8 dereferenceable_or_null(80) %0, ptr noundef align 8 dereferenceable(24) %1, i1 noundef zeroext %2) local_unnamed_addr #0 align 2 personality ptr @__gxx_personality_v0 {
  %4 = alloca %class.QRegularExpression, align 8
  %5 = alloca %class.QRegularExpressionValidator, align 8
  %6 = alloca i32, align 4
  %7 = getelementptr inbounds nuw i8, ptr %1, i64 16
  %8 = load i64, ptr %7, align 8
  %9 = icmp eq i64 %8, 0
  br i1 %9, label %10, label %15

10:                                               ; preds = %3
  br i1 %2, label %.critedge, label %11

11:                                               ; preds = %10
  %12 = getelementptr inbounds nuw i8, ptr %0, i64 64
  %13 = load i8, ptr %12, align 8, !range !18, !noundef !19
  %14 = trunc nuw i8 %13 to i1
  br i1 %14, label %15, label %.critedge

15:                                               ; preds = %11, %3
  %16 = getelementptr inbounds nuw i8, ptr %0, i64 56
  %17 = load i64, ptr %16, align 8
  %18 = icmp sgt i64 %17, 0
  br i1 %18, label %19, label %31

19:                                               ; preds = %15
  %20 = getelementptr inbounds nuw i8, ptr %0, i64 40
  call void @llvm.lifetime.start.p0(i64 8, ptr nonnull %4) #14
  call void @_ZN18QRegularExpressionC1ERK7QString6QFlagsINS_13PatternOptionEE(ptr noundef nonnull align 8 dereferenceable_or_null(8) %4, ptr noundef nonnull align 8 dereferenceable(24) %20, i32 0)
  call void @llvm.lifetime.start.p0(i64 16, ptr nonnull %5) #14
  invoke void @_ZN27QRegularExpressionValidatorC1ERK18QRegularExpressionP7QObject(ptr noundef nonnull align 8 dereferenceable_or_null(16) %5, ptr noundef nonnull align 8 dereferenceable(8) %4, ptr noundef null)
          to label %21 unwind label %26

21:                                               ; preds = %19
  call void @llvm.lifetime.start.p0(i64 4, ptr nonnull %6) #14
  store i32 0, ptr %6, align 4
  %22 = invoke noundef zeroext i1 @_ZNK18QRegularExpression7isValidEv(ptr noundef nonnull align 8 dereferenceable_or_null(8) %4)
          to label %23 unwind label %28

23:                                               ; preds = %21
  br i1 %22, label %24, label %.critedge.critedge

24:                                               ; preds = %23
  %25 = invoke noundef i32 @_ZNK27QRegularExpressionValidator8validateER7QStringRi(ptr noundef nonnull align 8 dereferenceable_or_null(16) %5, ptr noundef align 8 dereferenceable(24) %1, ptr noundef nonnull align 4 dereferenceable(4) %6)
          to label %select.unfold unwind label %28

select.unfold:                                    ; preds = %24
  %.not = icmp eq i32 %25, 2
  call void @llvm.lifetime.end.p0(i64 4, ptr nonnull %6) #14
  call void @_ZN27QRegularExpressionValidatorD1Ev(ptr noundef nonnull align 8 dereferenceable_or_null(16) %5) #14
  call void @llvm.lifetime.end.p0(i64 16, ptr nonnull %5) #14
  call void @_ZN18QRegularExpressionD1Ev(ptr noundef nonnull align 8 dereferenceable_or_null(8) %4) #14
  call void @llvm.lifetime.end.p0(i64 8, ptr nonnull %4) #14
  br i1 %.not, label %31, label %.critedge

26:                                               ; preds = %19
  %27 = landingpad { ptr, i32 }
          cleanup
  br label %30

28:                                               ; preds = %24, %21
  %29 = landingpad { ptr, i32 }
          cleanup
  call void @llvm.lifetime.end.p0(i64 4, ptr nonnull %6) #14
  call void @_ZN27QRegularExpressionValidatorD1Ev(ptr noundef nonnull align 8 dereferenceable_or_null(16) %5) #14
  br label %30

30:                                               ; preds = %28, %26
  %.pn = phi { ptr, i32 } [ %29, %28 ], [ %27, %26 ]
  call void @llvm.lifetime.end.p0(i64 16, ptr nonnull %5) #14
  call void @_ZN18QRegularExpressionD1Ev(ptr noundef nonnull align 8 dereferenceable_or_null(8) %4) #14
  call void @llvm.lifetime.end.p0(i64 8, ptr nonnull %4) #14
  resume { ptr, i32 } %.pn

31:                                               ; preds = %select.unfold, %15
  br label %.critedge

.critedge.critedge:                               ; preds = %23
  call void @llvm.lifetime.end.p0(i64 4, ptr nonnull %6) #14
  call void @_ZN27QRegularExpressionValidatorD1Ev(ptr noundef nonnull align 8 dereferenceable_or_null(16) %5) #14
  call void @llvm.lifetime.end.p0(i64 16, ptr nonnull %5) #14
  call void @_ZN18QRegularExpressionD1Ev(ptr noundef nonnull align 8 dereferenceable_or_null(8) %4) #14
  call void @llvm.lifetime.end.p0(i64 8, ptr nonnull %4) #14
  br label %.critedge

.critedge:                                        ; preds = %.critedge.critedge, %10, %11, %select.unfold, %31
  %.010 = phi i1 [ false, %select.unfold ], [ true, %31 ], [ false, %11 ], [ true, %10 ], [ false, %.critedge.critedge ]
  ret i1 %.010
}